target datalayout = "e-m:e-p270:32:32-p271:32:32-p272:64:64-i64:64-i128:128-f80:128-n8:16:32:64-S128"
target triple = "x86_64-pc-linux-gnu"

%"class.icu_77::UnicodeString" = type { %"class.icu_77::Replaceable", %"union.icu_77::UnicodeString::StackBufferOrFields" }
%"class.icu_77::Replaceable" = type { %"class.icu_77::UObject" }
%"class.icu_77::UObject" = type { ptr }
%"union.icu_77::UnicodeString::StackBufferOrFields" = type { %struct.anon.0, [32 x i8] }
%struct.anon.0 = type { i16, i32, i32, ptr }
%"class.icu_77::RuleBasedNumberFormat" = type { %"class.icu_77::NumberFormat.base", ptr, ptr, i32, ptr, %"class.icu_77::Locale", ptr, ptr, ptr, ptr, i32, i8, ptr, ptr, %"class.icu_77::UnicodeString", i8, i8, i8, ptr }
%"class.icu_77::NumberFormat.base" = type <{ %"class.icu_77::Format", i8, [3 x i8], i32, i32, i32, i32, i8, i8, [4 x i16], [2 x i8], i32 }>
%"class.icu_77::Format" = type { %"class.icu_77::UObject", ptr, ptr }
%"class.icu_77::Locale" = type <{ %"class.icu_77::UObject", [12 x i8], [6 x i8], [4 x i8], [2 x i8], i32, [4 x i8], ptr, [157 x i8], [3 x i8], ptr, i8, [7 x i8] }>
%"class.icu_77::NFRuleSet" = type <{ [8 x i8], %"class.icu_77::UnicodeString", %"class.icu_77::NFRuleList", [6 x ptr], ptr, %"class.icu_77::NFRuleList", i8, i8, i8, [5 x i8] }>
%"class.icu_77::NFRuleList" = type { ptr, i32, i32 }

; Function Attrs: mustprogress nounwind uwtable
define linkonce_odr noundef signext i8 @_ZNK6icu_779NFRuleSet8isPublicEv(ptr noundef nonnull align 8 dereferenceable(163) %0) #0 comdat align 2 {
  %2 = alloca ptr, align 8
  store ptr %0, ptr %2, align 8, !tbaa !121
  %3 = load ptr, ptr %2, align 8
  %4 = getelementptr inbounds nuw %"class.icu_77::NFRuleSet", ptr %3, i32 0, i32 7
  %5 = load i8, ptr %4, align 1, !tbaa !151
  ret i8 %5
}

; Function Attrs: mustprogress uwtable
define noundef i32 @_ZNK6icu_7721RuleBasedNumberFormat23getNumberOfRuleSetNamesEv(ptr noundef nonnull align 8 dereferenceable(456) %0) unnamed_addr #2 align 2 {
  %2 = alloca ptr, align 8
  %3 = alloca i32, align 4
  %4 = alloca ptr, align 8
  store ptr %0, ptr %2, align 8, !tbaa !3
  %5 = load ptr, ptr %2, align 8
  call void @llvm.lifetime.start.p0(i64 4, ptr %3) #14
  store i32 0, ptr %3, align 4, !tbaa !12
  %6 = getelementptr inbounds nuw %"class.icu_77::RuleBasedNumberFormat", ptr %5, i32 0, i32 13
  %7 = load ptr, ptr %6, align 8, !tbaa !114
  %8 = icmp ne ptr %7, null
  br i1 %8, label %9, label %16

9:                                                ; preds = %1
  %10 = getelementptr inbounds nuw %"class.icu_77::RuleBasedNumberFormat", ptr %5, i32 0, i32 13
  %11 = load ptr, ptr %10, align 8, !tbaa !114
  %12 = load ptr, ptr %11, align 8, !tbaa !10
  %13 = getelementptr inbounds ptr, ptr %12, i64 3
  %14 = load ptr, ptr %13, align 8
  %15 = call noundef i32 %14(ptr noundef nonnull align 8 dereferenceable(12) %11)
  store i32 %15, ptr %3, align 4, !tbaa !12
  br label %42

16:                                               ; preds = %1
  %17 = getelementptr inbounds nuw %"class.icu_77::RuleBasedNumberFormat", ptr %5, i32 0, i32 1
  %18 = load ptr, ptr %17, align 8, !tbaa !87
  %19 = icmp ne ptr %18, null
  br i1 %19, label %20, label %41

20:                                               ; preds = %16
  call void @llvm.lifetime.start.p0(i64 8, ptr %4) #14
  %21 = getelementptr inbounds nuw %"class.icu_77::RuleBasedNumberFormat", ptr %5, i32 0, i32 1
  %22 = load ptr, ptr %21, align 8, !tbaa !87
  store ptr %22, ptr %4, align 8, !tbaa !134
  br label %23

23:                                               ; preds = %37, %20
  %24 = load ptr, ptr %4, align 8, !tbaa !134
  %25 = load ptr, ptr %24, align 8, !tbaa !121
  %26 = icmp ne ptr %25, null
  br i1 %26, label %28, label %27

27:                                               ; preds = %23
  call void @llvm.lifetime.end.p0(i64 8, ptr %4) #14
  br label %40

28:                                               ; preds = %23
  %29 = load ptr, ptr %4, align 8, !tbaa !134
  %30 = load ptr, ptr %29, align 8, !tbaa !121
  %31 = call noundef signext i8 @_ZNK6icu_779NFRuleSet8isPublicEv(ptr noundef nonnull align 8 dereferenceable(163) %30)
  %32 = icmp ne i8 %31, 0
  br i1 %32, label %33, label %36

33:                                               ; preds = %28
  %34 = load i32, ptr %3, align 4, !tbaa !12
  %35 = add nsw i32 %34, 1
  store i32 %35, ptr %3, align 4, !tbaa !12
  br label %36

36:                                               ; preds = %33, %28
  br label %37

37:                                               ; preds = %36
  %38 = load ptr, ptr %4, align 8, !tbaa !134
  %39 = getelementptr inbounds nuw ptr, ptr %38, i32 1
  store ptr %39, ptr %4, align 8, !tbaa !134
  br label %23, !llvm.loop !155

40:                                               ; preds = %27
  br label %41

41:                                               ; preds = %40, %16
  br label %42

42:                                               ; preds = %41, %9
  %43 = load i32, ptr %3, align 4, !tbaa !12
  call void @llvm.lifetime.end.p0(i64 4, ptr %3) #14
  ret i32 %43
}