; Function Attrs: mustprogress uwtable
define noundef i32 @_ZNK6icu_7721RuleBasedNumberFormat23getNumberOfRuleSetNamesEv(ptr noundef nonnull readonly align 8 captures(none) dereferenceable(456) %0) unnamed_addr #3 align 2 {
  %2 = getelementptr inbounds nuw i8, ptr %0, i64 368
  %3 = load ptr, ptr %2, align 8, !tbaa !91
  %.not = icmp eq ptr %3, null
  br i1 %.not, label %9, label %4

4:                                                ; preds = %1
  %5 = load ptr, ptr %3, align 8, !tbaa !3
  %6 = getelementptr inbounds nuw i8, ptr %5, i64 24
  %7 = load ptr, ptr %6, align 8
  %8 = tail call noundef i32 %7(ptr noundef nonnull align 8 dereferenceable(12) %3)
  br label %.loopexit

9:                                                ; preds = %1
  %10 = getelementptr inbounds nuw i8, ptr %0, i64 64
  %11 = load ptr, ptr %10, align 8, !tbaa !95
  %.not9 = icmp eq ptr %11, null
  br i1 %.not9, label %.loopexit, label %.preheader

.preheader:                                       ; preds = %9
  %12 = load ptr, ptr %11, align 8, !tbaa !96
  %.not1012 = icmp eq ptr %12, null
  br i1 %.not1012, label %.loopexit, label %.lr.ph

.lr.ph:                                           ; preds = %.preheader, %.lr.ph
  %13 = phi ptr [ %18, %.lr.ph ], [ %12, %.preheader ]
  %.014 = phi ptr [ %17, %.lr.ph ], [ %11, %.preheader ]
  %.113 = phi i32 [ %spec.select, %.lr.ph ], [ 0, %.preheader ]
  %14 = getelementptr inbounds nuw i8, ptr %13, i64 161
  %15 = load i8, ptr %14, align 1, !tbaa !118
  %.not11 = icmp ne i8 %15, 0
  %16 = zext i1 %.not11 to i32
  %spec.select = add nuw nsw i32 %.113, %16
  %17 = getelementptr inbounds nuw i8, ptr %.014, i64 8
  %18 = load ptr, ptr %17, align 8, !tbaa !96
  %.not10 = icmp eq ptr %18, null
  br i1 %.not10, label %.loopexit, label %.lr.ph, !llvm.loop !124

.loopexit:                                        ; preds = %.lr.ph, %.preheader, %9, %4
  %.05 = phi i32 [ %8, %4 ], [ 0, %9 ], [ 0, %.preheader ], [ %spec.select, %.lr.ph ]
  ret i32 %.05
}